; Function Attrs: mustprogress uwtable
define noundef zeroext i1 @_ZNK3nix8fetchers5Input8isDirectEv(ptr noundef nonnull align 8 dereferenceable(104) %0) local_unnamed_addr #5 align 2 {
  %2 = load ptr, ptr %0, align 8
  %.not = icmp eq ptr %2, null
  br i1 %.not, label %8, label %3

3:                                                ; preds = %1
  %4 = load ptr, ptr %2, align 8
  %5 = getelementptr inbounds i8, ptr %4, i64 112
  %6 = load ptr, ptr %5, align 8
  %7 = tail call noundef zeroext i1 %6(ptr noundef nonnull align 8 dereferenceable(8) %2, ptr noundef nonnull align 8 dereferenceable(104) %0)
  br label %8

8:                                                ; preds = %3, %1
  %9 = phi i1 [ true, %1 ], [ %7, %3 ]
  ret i1 %9
}